; Function Attrs: mustprogress nounwind uwtable
define internal fastcc noundef range(i64 -1152921504606846976, 1152921504606846976) i64 @_ZL15GetMaxLeafCountRKN4llvm17DirectiveLanguageE(ptr nonnull %.8.val) unnamed_addr #0 {
  %1 = alloca %"class.std::vector", align 8
  %2 = alloca %"class.std::vector", align 8
  call void @_ZNK4llvm12RecordKeeper24getAllDerivedDefinitionsENS_9StringRefE(ptr dead_on_unwind nonnull writable sret(%"class.std::vector") align 8 %1, ptr noundef nonnull align 8 dereferenceable(232) %.8.val, ptr nonnull @.str.3, i64 9) #21
  %3 = load ptr, ptr %1, align 8
  %4 = getelementptr inbounds nuw i8, ptr %1, i64 8
  %5 = load ptr, ptr %4, align 8
  %.not9 = icmp eq ptr %3, %5
  br i1 %.not9, label %._crit_edge, label %.lr.ph

.lr.ph:                                           ; preds = %0
  %6 = getelementptr inbounds nuw i8, ptr %2, i64 8
  %7 = getelementptr inbounds nuw i8, ptr %2, i64 16
  br label %15

._crit_edge.loopexit:                             ; preds = %_ZNSt6vectorIPN4llvm6RecordESaIS2_EED2Ev.exit5
  %.pre = load ptr, ptr %1, align 8
  br label %._crit_edge

._crit_edge:                                      ; preds = %._crit_edge.loopexit, %0
  %8 = phi ptr [ %3, %0 ], [ %.pre, %._crit_edge.loopexit ]
  %.0.lcssa = phi i64 [ 0, %0 ], [ %.sroa.speculated, %._crit_edge.loopexit ]
  %.not.i.i.i = icmp eq ptr %8, null
  br i1 %.not.i.i.i, label %_ZNSt6vectorIPN4llvm6RecordESaIS2_EED2Ev.exit, label %9

9:                                                ; preds = %._crit_edge
  %10 = getelementptr inbounds nuw i8, ptr %1, i64 16
  %11 = load ptr, ptr %10, align 8
  %12 = ptrtoint ptr %11 to i64
  %13 = ptrtoint ptr %8 to i64
  %14 = sub i64 %12, %13
  call void @_ZdlPvm(ptr noundef nonnull %8, i64 noundef %14) #22
  br label %_ZNSt6vectorIPN4llvm6RecordESaIS2_EED2Ev.exit

_ZNSt6vectorIPN4llvm6RecordESaIS2_EED2Ev.exit:    ; preds = %._crit_edge, %9
  ret i64 %.0.lcssa

15:                                               ; preds = %.lr.ph, %_ZNSt6vectorIPN4llvm6RecordESaIS2_EED2Ev.exit5
  %.011 = phi i64 [ 0, %.lr.ph ], [ %.sroa.speculated, %_ZNSt6vectorIPN4llvm6RecordESaIS2_EED2Ev.exit5 ]
  %.sroa.03.010 = phi ptr [ %3, %.lr.ph ], [ %27, %_ZNSt6vectorIPN4llvm6RecordESaIS2_EED2Ev.exit5 ]
  %16 = load ptr, ptr %.sroa.03.010, align 8
  call void @_ZNK4llvm6Record20getValueAsListOfDefsENS_9StringRefE(ptr dead_on_unwind nonnull writable sret(%"class.std::vector") align 8 %2, ptr noundef nonnull align 8 dereferenceable(192) %16, ptr nonnull @.str.114, i64 14) #21
  %17 = load ptr, ptr %6, align 8
  %18 = load ptr, ptr %2, align 8
  %19 = ptrtoint ptr %17 to i64
  %20 = ptrtoint ptr %18 to i64
  %21 = sub i64 %19, %20
  %22 = ashr exact i64 %21, 3
  %.not.i.i.i4 = icmp eq ptr %18, null
  br i1 %.not.i.i.i4, label %_ZNSt6vectorIPN4llvm6RecordESaIS2_EED2Ev.exit5, label %23

23:                                               ; preds = %15
  %24 = load ptr, ptr %7, align 8
  %25 = ptrtoint ptr %24 to i64
  %26 = sub i64 %25, %20
  call void @_ZdlPvm(ptr noundef nonnull %18, i64 noundef %26) #22
  br label %_ZNSt6vectorIPN4llvm6RecordESaIS2_EED2Ev.exit5

_ZNSt6vectorIPN4llvm6RecordESaIS2_EED2Ev.exit5:   ; preds = %15, %23
  %.sroa.speculated = call i64 @llvm.umax.i64(i64 %.011, i64 %22)
  %27 = getelementptr inbounds i8, ptr %.sroa.03.010, i64 8
  %.not = icmp eq ptr %27, %5
  br i1 %.not, label %._crit_edge.loopexit, label %15
}